target datalayout = "e-m:e-p270:32:32-p271:32:32-p272:64:64-i64:64-i128:128-f80:128-n8:16:32:64-S128"
target triple = "x86_64-pc-linux-gnu"

%struct.nstime_t = type { i64, i32 }
%struct._address = type { i32, i32, ptr, ptr }
%struct._packet_info = type { ptr, ptr, i32, i32, %struct.nstime_t, %struct.nstime_t, %struct.nstime_t, i8, ptr, ptr, ptr, ptr, %struct._address, %struct._address, %struct._address, %struct._address, %struct._address, %struct._address, i32, ptr, i8, [3 x i8], %struct.anon, i32, i32, i32, i32, ptr, i8, ptr, ptr, i16, i16, i32, i32, i16, i32, i32, ptr, ptr, ptr, i8, i8, i16, i16, i16, i32, i16, i16, ptr, ptr, ptr, ptr, ptr, i32, i32 }
%struct.anon = type { i8, [3 x i8] }

@hf_hop_count_limit = internal global i32 0, align 4
@hf_hop_count_current = internal global i32 0, align 4

; Function Attrs: null_pointer_is_valid sspstrong uwtable
define internal i32 @dissect_block_hop_count(ptr noundef %0, ptr noundef %1, ptr noundef %2, ptr noundef %3) #2 {
  %5 = alloca i32, align 4
  %6 = alloca ptr, align 8
  %7 = alloca ptr, align 8
  %8 = alloca ptr, align 8
  %9 = alloca ptr, align 8
  %10 = alloca i32, align 4
  %11 = alloca ptr, align 8
  %12 = alloca i32, align 4
  %13 = alloca ptr, align 8
  %14 = alloca ptr, align 8
  store ptr %0, ptr %6, align 8
  store ptr %1, ptr %7, align 8
  store ptr %2, ptr %8, align 8
  store ptr %3, ptr %9, align 8
  call void @llvm.lifetime.start.p0(i64 4, ptr %10) #18
  store i32 0, ptr %10, align 4
  call void @llvm.lifetime.start.p0(i64 8, ptr %11) #18
  %15 = load ptr, ptr %7, align 8
  %16 = getelementptr inbounds nuw %struct._packet_info, ptr %15, i32 0, i32 51
  %17 = load ptr, ptr %16, align 8
  %18 = load ptr, ptr %6, align 8
  %19 = call ptr @wscbor_chunk_read(ptr noundef %17, ptr noundef %18, ptr noundef %10)
  store ptr %19, ptr %11, align 8
  %20 = load ptr, ptr %11, align 8
  %21 = call zeroext i1 @wscbor_require_array_size(ptr noundef %20, i64 noundef 2, i64 noundef 2)
  %22 = load ptr, ptr %7, align 8
  %23 = getelementptr inbounds nuw %struct._packet_info, ptr %22, i32 0, i32 51
  %24 = load ptr, ptr %23, align 8
  %25 = load ptr, ptr %6, align 8
  %26 = load ptr, ptr %11, align 8
  %27 = call zeroext i1 @wscbor_skip_if_errors(ptr noundef %24, ptr noundef %25, ptr noundef %10, ptr noundef %26)
  br i1 %27, label %28, label %29

28:                                               ; preds = %4
  store i32 0, ptr %5, align 4
  store i32 1, ptr %12, align 4
  br label %65

29:                                               ; preds = %4
  %30 = load ptr, ptr %7, align 8
  %31 = getelementptr inbounds nuw %struct._packet_info, ptr %30, i32 0, i32 51
  %32 = load ptr, ptr %31, align 8
  %33 = load ptr, ptr %6, align 8
  %34 = call ptr @wscbor_chunk_read(ptr noundef %32, ptr noundef %33, ptr noundef %10)
  store ptr %34, ptr %11, align 8
  call void @llvm.lifetime.start.p0(i64 8, ptr %13) #18
  %35 = load ptr, ptr %7, align 8
  %36 = getelementptr inbounds nuw %struct._packet_info, ptr %35, i32 0, i32 51
  %37 = load ptr, ptr %36, align 8
  %38 = load ptr, ptr %11, align 8
  %39 = call ptr @wscbor_require_uint64(ptr noundef %37, ptr noundef %38)
  store ptr %39, ptr %13, align 8
  %40 = load ptr, ptr %8, align 8
  %41 = load i32, ptr @hf_hop_count_limit, align 4
  %42 = load ptr, ptr %7, align 8
  %43 = load ptr, ptr %6, align 8
  %44 = load ptr, ptr %11, align 8
  %45 = load ptr, ptr %13, align 8
  %46 = call ptr @proto_tree_add_cbor_uint64(ptr noundef %40, i32 noundef %41, ptr noundef %42, ptr noundef %43, ptr noundef %44, ptr noundef %45)
  %47 = load ptr, ptr %7, align 8
  %48 = getelementptr inbounds nuw %struct._packet_info, ptr %47, i32 0, i32 51
  %49 = load ptr, ptr %48, align 8
  %50 = load ptr, ptr %6, align 8
  %51 = call ptr @wscbor_chunk_read(ptr noundef %49, ptr noundef %50, ptr noundef %10)
  store ptr %51, ptr %11, align 8
  call void @llvm.lifetime.start.p0(i64 8, ptr %14) #18
  %52 = load ptr, ptr %7, align 8
  %53 = getelementptr inbounds nuw %struct._packet_info, ptr %52, i32 0, i32 51
  %54 = load ptr, ptr %53, align 8
  %55 = load ptr, ptr %11, align 8
  %56 = call ptr @wscbor_require_uint64(ptr noundef %54, ptr noundef %55)
  store ptr %56, ptr %14, align 8
  %57 = load ptr, ptr %8, align 8
  %58 = load i32, ptr @hf_hop_count_current, align 4
  %59 = load ptr, ptr %7, align 8
  %60 = load ptr, ptr %6, align 8
  %61 = load ptr, ptr %11, align 8
  %62 = load ptr, ptr %14, align 8
  %63 = call ptr @proto_tree_add_cbor_uint64(ptr noundef %57, i32 noundef %58, ptr noundef %59, ptr noundef %60, ptr noundef %61, ptr noundef %62)
  %64 = load i32, ptr %10, align 4
  store i32 %64, ptr %5, align 4
  store i32 1, ptr %12, align 4
  call void @llvm.lifetime.end.p0(i64 8, ptr %14) #18
  call void @llvm.lifetime.end.p0(i64 8, ptr %13) #18
  br label %65

65:                                               ; preds = %29, %28
  call void @llvm.lifetime.end.p0(i64 8, ptr %11) #18
  call void @llvm.lifetime.end.p0(i64 4, ptr %10) #18
  %66 = load i32, ptr %5, align 4
  ret i32 %66
}