; Function Attrs: null_pointer_is_valid sspstrong uwtable
define internal i32 @dissect_block_hop_count(ptr noundef %0, ptr noundef %1, ptr noundef %2, ptr readnone captures(none) %3) #2 {
  %5 = alloca i32, align 4
  call void @llvm.lifetime.start.p0(i64 4, ptr nonnull %5) #19
  store i32 0, ptr %5, align 4
  %6 = getelementptr inbounds nuw i8, ptr %1, i64 408
  %7 = load ptr, ptr %6, align 8
  %8 = call ptr @wscbor_chunk_read(ptr noundef %7, ptr noundef %0, ptr noundef nonnull %5)
  %9 = call zeroext i1 @wscbor_require_array_size(ptr noundef %8, i64 noundef 2, i64 noundef 2)
  %10 = load ptr, ptr %6, align 8
  %11 = call zeroext i1 @wscbor_skip_if_errors(ptr noundef %10, ptr noundef %0, ptr noundef nonnull %5, ptr noundef %8)
  br i1 %11, label %26, label %12

12:                                               ; preds = %4
  %13 = load ptr, ptr %6, align 8
  %14 = call ptr @wscbor_chunk_read(ptr noundef %13, ptr noundef %0, ptr noundef nonnull %5)
  %15 = load ptr, ptr %6, align 8
  %16 = call ptr @wscbor_require_uint64(ptr noundef %15, ptr noundef %14)
  %17 = load i32, ptr @hf_hop_count_limit, align 4
  %18 = call ptr @proto_tree_add_cbor_uint64(ptr noundef %2, i32 noundef %17, ptr noundef %1, ptr noundef %0, ptr noundef %14, ptr noundef %16)
  %19 = load ptr, ptr %6, align 8
  %20 = call ptr @wscbor_chunk_read(ptr noundef %19, ptr noundef %0, ptr noundef nonnull %5)
  %21 = load ptr, ptr %6, align 8
  %22 = call ptr @wscbor_require_uint64(ptr noundef %21, ptr noundef %20)
  %23 = load i32, ptr @hf_hop_count_current, align 4
  %24 = call ptr @proto_tree_add_cbor_uint64(ptr noundef %2, i32 noundef %23, ptr noundef %1, ptr noundef %0, ptr noundef %20, ptr noundef %22)
  %25 = load i32, ptr %5, align 4
  br label %26

26:                                               ; preds = %4, %12
  %.0 = phi i32 [ %25, %12 ], [ 0, %4 ]
  call void @llvm.lifetime.end.p0(i64 4, ptr nonnull %5) #19
  ret i32 %.0
}